; Function Attrs: mustprogress uwtable
define hidden void @_ZN4lean17unfold_macro_defsERKNS_16elab_environmentERKNS_4exprE(ptr dead_on_unwind noalias writable sret(%"class.lean::expr") align 8 %0, ptr noundef nonnull align 8 dereferenceable(8) %1, ptr noundef nonnull align 8 dereferenceable(8) %2) local_unnamed_addr #0 personality ptr @__gxx_personality_v0 {
  %4 = alloca %"struct.lean::unfold_macro_defs_fn", align 8
  call void @llvm.lifetime.start.p0(i64 72, ptr nonnull %4) #25
  %5 = getelementptr inbounds nuw i8, ptr %4, i64 8
  %6 = getelementptr inbounds nuw i8, ptr %4, i64 56
  store ptr %6, ptr %5, align 8, !tbaa !42
  %7 = getelementptr inbounds nuw i8, ptr %4, i64 16
  store i64 1, ptr %7, align 8, !tbaa !51
  %8 = getelementptr inbounds nuw i8, ptr %4, i64 24
  %9 = getelementptr inbounds nuw i8, ptr %4, i64 40
  call void @llvm.memset.p0.i64(ptr noundef nonnull align 8 dereferenceable(16) %8, i8 0, i64 16, i1 false)
  store float 1.000000e+00, ptr %9, align 8, !tbaa !52
  %10 = getelementptr inbounds nuw i8, ptr %4, i64 48
  call void @llvm.memset.p0.i64(ptr noundef nonnull align 8 dereferenceable(16) %10, i8 0, i64 16, i1 false)
  store ptr getelementptr inbounds nuw inrange(-16, 112) (i8, ptr @_ZTVN4lean20unfold_macro_defs_fnE, i64 16), ptr %4, align 8, !tbaa !53
  %11 = getelementptr inbounds nuw i8, ptr %4, i64 64
  store ptr %1, ptr %11, align 8, !tbaa !58
  invoke void @_ZN4lean15replace_visitor5visitERKNS_4exprE(ptr dead_on_unwind writable sret(%"class.lean::expr") align 8 %0, ptr noundef nonnull align 8 dereferenceable(64) %4, ptr noundef nonnull align 8 dereferenceable(8) %2)
          to label %_ZN4lean15replace_visitorclERKNS_4exprE.exit unwind label %25

_ZN4lean15replace_visitorclERKNS_4exprE.exit:     ; preds = %3
  store ptr getelementptr inbounds nuw inrange(-16, 112) (i8, ptr @_ZTVN4lean15replace_visitorE, i64 16), ptr %4, align 8, !tbaa !53
  %12 = load ptr, ptr %8, align 8, !tbaa !55
  %.not5.i.i.i.i.i = icmp eq ptr %12, null
  br i1 %.not5.i.i.i.i.i, label %_ZNSt10_HashtableIN4lean4exprESt4pairIKS1_S1_ESaIS4_ENSt8__detail10_Select1stENS0_16is_bi_equal_procENS0_9expr_hashENS6_18_Mod_range_hashingENS6_20_Default_ranged_hashENS6_20_Prime_rehash_policyENS6_17_Hashtable_traitsILb1ELb0ELb1EEEE5clearEv.exit.i.i.i, label %.lr.ph.i.i.i.i.i

.lr.ph.i.i.i.i.i:                                 ; preds = %_ZN4lean15replace_visitorclERKNS_4exprE.exit, %.noexc.i.i.i.i
  %.06.i.i.i.i.i = phi ptr [ %13, %.noexc.i.i.i.i ], [ %12, %_ZN4lean15replace_visitorclERKNS_4exprE.exit ]
  %13 = load ptr, ptr %.06.i.i.i.i.i, align 8, !tbaa !56
  invoke void @_ZNSt8__detail16_Hashtable_allocISaINS_10_Hash_nodeISt4pairIKN4lean4exprES4_ELb1EEEEE18_M_deallocate_nodeEPS7_(ptr noundef nonnull align 8 dereferenceable(56) %5, ptr noundef nonnull %.06.i.i.i.i.i)
          to label %.noexc.i.i.i.i unwind label %14

.noexc.i.i.i.i:                                   ; preds = %.lr.ph.i.i.i.i.i
  %.not.i.i.i.i.i = icmp eq ptr %13, null
  br i1 %.not.i.i.i.i.i, label %_ZNSt10_HashtableIN4lean4exprESt4pairIKS1_S1_ESaIS4_ENSt8__detail10_Select1stENS0_16is_bi_equal_procENS0_9expr_hashENS6_18_Mod_range_hashingENS6_20_Default_ranged_hashENS6_20_Prime_rehash_policyENS6_17_Hashtable_traitsILb1ELb0ELb1EEEE5clearEv.exit.i.i.i, label %.lr.ph.i.i.i.i.i, !llvm.loop !57

14:                                               ; preds = %.lr.ph.i.i.i.i.i
  %15 = landingpad { ptr, i32 }
          catch ptr null
  %16 = extractvalue { ptr, i32 } %15, 0
  call void @__clang_call_terminate(ptr %16) #26
  unreachable

_ZNSt10_HashtableIN4lean4exprESt4pairIKS1_S1_ESaIS4_ENSt8__detail10_Select1stENS0_16is_bi_equal_procENS0_9expr_hashENS6_18_Mod_range_hashingENS6_20_Default_ranged_hashENS6_20_Prime_rehash_policyENS6_17_Hashtable_traitsILb1ELb0ELb1EEEE5clearEv.exit.i.i.i: ; preds = %.noexc.i.i.i.i, %_ZN4lean15replace_visitorclERKNS_4exprE.exit
  %17 = load ptr, ptr %5, align 8, !tbaa !42
  %18 = load i64, ptr %7, align 8, !tbaa !51
  %19 = shl i64 %18, 3
  call void @llvm.memset.p0.i64(ptr align 8 %17, i8 0, i64 %19, i1 false)
  call void @llvm.memset.p0.i64(ptr noundef nonnull align 8 dereferenceable(16) %8, i8 0, i64 16, i1 false)
  %20 = load ptr, ptr %5, align 8, !tbaa !42
  %21 = icmp eq ptr %20, %6
  br i1 %21, label %_ZN4lean15replace_visitorD2Ev.exit, label %22

22:                                               ; preds = %_ZNSt10_HashtableIN4lean4exprESt4pairIKS1_S1_ESaIS4_ENSt8__detail10_Select1stENS0_16is_bi_equal_procENS0_9expr_hashENS6_18_Mod_range_hashingENS6_20_Default_ranged_hashENS6_20_Prime_rehash_policyENS6_17_Hashtable_traitsILb1ELb0ELb1EEEE5clearEv.exit.i.i.i
  %23 = load i64, ptr %7, align 8, !tbaa !51
  %24 = shl i64 %23, 3
  call void @_ZdlPvm(ptr noundef %20, i64 noundef %24) #27
  br label %_ZN4lean15replace_visitorD2Ev.exit

_ZN4lean15replace_visitorD2Ev.exit:               ; preds = %_ZNSt10_HashtableIN4lean4exprESt4pairIKS1_S1_ESaIS4_ENSt8__detail10_Select1stENS0_16is_bi_equal_procENS0_9expr_hashENS6_18_Mod_range_hashingENS6_20_Default_ranged_hashENS6_20_Prime_rehash_policyENS6_17_Hashtable_traitsILb1ELb0ELb1EEEE5clearEv.exit.i.i.i, %22
  call void @llvm.lifetime.end.p0(i64 72, ptr nonnull %4) #25
  ret void

25:                                               ; preds = %3
  %26 = landingpad { ptr, i32 }
          cleanup
  call void @_ZN4lean15replace_visitorD2Ev(ptr noundef nonnull align 8 dereferenceable(72) %4) #25
  call void @llvm.lifetime.end.p0(i64 72, ptr nonnull %4) #25
  resume { ptr, i32 } %26
}